target datalayout = "e-m:e-p270:32:32-p271:32:32-p272:64:64-i64:64-i128:128-f80:128-n8:16:32:64-S128"
target triple = "x86_64-pc-linux-gnu"

%struct.UConverterAlias = type { ptr, ptr, ptr, ptr, ptr, ptr, ptr, ptr, ptr, i32, i32, i32, i32, i32, i32, i32, i32, i32 }

@_ZL10gMainTable = internal global %struct.UConverterAlias zeroinitializer, align 8

; Function Attrs: inlinehint mustprogress nounwind uwtable
define internal noundef signext i8 @_ZL13isAliasInListPKcj(ptr noundef %0, i32 noundef %1) #3 {
  %3 = alloca i8, align 1
  %4 = alloca ptr, align 8
  %5 = alloca i32, align 4
  %6 = alloca i32, align 4
  %7 = alloca i32, align 4
  %8 = alloca ptr, align 8
  %9 = alloca i32, align 4
  store ptr %0, ptr %4, align 8, !tbaa !3
  store i32 %1, ptr %5, align 4, !tbaa !14
  %10 = load i32, ptr %5, align 4, !tbaa !14
  %11 = icmp ne i32 %10, 0
  br i1 %11, label %12, label %57

12:                                               ; preds = %2
  call void @llvm.lifetime.start.p0(i64 4, ptr %6) #12
  call void @llvm.lifetime.start.p0(i64 4, ptr %7) #12
  %13 = load ptr, ptr getelementptr inbounds nuw (%struct.UConverterAlias, ptr @_ZL10gMainTable, i32 0, i32 5), align 8, !tbaa !49
  %14 = load i32, ptr %5, align 4, !tbaa !14
  %15 = zext i32 %14 to i64
  %16 = getelementptr inbounds nuw i16, ptr %13, i64 %15
  %17 = load i16, ptr %16, align 2, !tbaa !23
  %18 = zext i16 %17 to i32
  store i32 %18, ptr %7, align 4, !tbaa !14
  call void @llvm.lifetime.start.p0(i64 8, ptr %8) #12
  %19 = load ptr, ptr getelementptr inbounds nuw (%struct.UConverterAlias, ptr @_ZL10gMainTable, i32 0, i32 5), align 8, !tbaa !49
  %20 = load i32, ptr %5, align 4, !tbaa !14
  %21 = zext i32 %20 to i64
  %22 = getelementptr inbounds nuw i16, ptr %19, i64 %21
  %23 = getelementptr inbounds i16, ptr %22, i64 1
  store ptr %23, ptr %8, align 8, !tbaa !53
  store i32 0, ptr %6, align 4, !tbaa !14
  br label %24

24:                                               ; preds = %50, %12
  %25 = load i32, ptr %6, align 4, !tbaa !14
  %26 = load i32, ptr %7, align 4, !tbaa !14
  %27 = icmp ult i32 %25, %26
  br i1 %27, label %28, label %53

28:                                               ; preds = %24
  %29 = load ptr, ptr %8, align 8, !tbaa !53
  %30 = load i32, ptr %6, align 4, !tbaa !14
  %31 = zext i32 %30 to i64
  %32 = getelementptr inbounds nuw i16, ptr %29, i64 %31
  %33 = load i16, ptr %32, align 2, !tbaa !23
  %34 = icmp ne i16 %33, 0
  br i1 %34, label %35, label %49

35:                                               ; preds = %28
  %36 = load ptr, ptr %4, align 8, !tbaa !3
  %37 = load ptr, ptr getelementptr inbounds nuw (%struct.UConverterAlias, ptr @_ZL10gMainTable, i32 0, i32 7), align 8, !tbaa !21
  %38 = load ptr, ptr %8, align 8, !tbaa !53
  %39 = load i32, ptr %6, align 4, !tbaa !14
  %40 = zext i32 %39 to i64
  %41 = getelementptr inbounds nuw i16, ptr %38, i64 %40
  %42 = load i16, ptr %41, align 2, !tbaa !23
  %43 = zext i16 %42 to i32
  %44 = sext i32 %43 to i64
  %45 = getelementptr inbounds i16, ptr %37, i64 %44
  %46 = call i32 @ucnv_compareNames_77(ptr noundef %36, ptr noundef %45)
  %47 = icmp eq i32 %46, 0
  br i1 %47, label %48, label %49

48:                                               ; preds = %35
  store i8 1, ptr %3, align 1
  store i32 1, ptr %9, align 4
  br label %54

49:                                               ; preds = %35, %28
  br label %50

50:                                               ; preds = %49
  %51 = load i32, ptr %6, align 4, !tbaa !14
  %52 = add i32 %51, 1
  store i32 %52, ptr %6, align 4, !tbaa !14
  br label %24, !llvm.loop !113

53:                                               ; preds = %24
  store i32 0, ptr %9, align 4
  br label %54

54:                                               ; preds = %53, %48
  call void @llvm.lifetime.end.p0(i64 8, ptr %8) #12
  call void @llvm.lifetime.end.p0(i64 4, ptr %7) #12
  call void @llvm.lifetime.end.p0(i64 4, ptr %6) #12
  %55 = load i32, ptr %9, align 4
  switch i32 %55, label %60 [
    i32 0, label %56
    i32 1, label %58
  ]

56:                                               ; preds = %54
  br label %57

57:                                               ; preds = %56, %2
  store i8 0, ptr %3, align 1
  br label %58

58:                                               ; preds = %57, %54
  %59 = load i8, ptr %3, align 1
  ret i8 %59

60:                                               ; preds = %54
  unreachable
}

; Function Attrs: mustprogress uwtable
define internal noundef i32 @_ZL12getTagNumberPKc(ptr noundef %0) #2 {
  %2 = alloca i32, align 4
  %3 = alloca ptr, align 8
  %4 = alloca i32, align 4
  %5 = alloca i32, align 4
  store ptr %0, ptr %3, align 8, !tbaa !3
  %6 = load ptr, ptr getelementptr inbounds nuw (%struct.UConverterAlias, ptr @_ZL10gMainTable, i32 0, i32 1), align 8, !tbaa !52
  %7 = icmp ne ptr %6, null
  br i1 %7, label %8, label %36

8:                                                ; preds = %1
  call void @llvm.lifetime.start.p0(i64 4, ptr %4) #12
  store i32 0, ptr %4, align 4, !tbaa !14
  br label %9

9:                                                ; preds = %29, %8
  %10 = load i32, ptr %4, align 4, !tbaa !14
  %11 = load i32, ptr getelementptr inbounds nuw (%struct.UConverterAlias, ptr @_ZL10gMainTable, i32 0, i32 10), align 4, !tbaa !47
  %12 = icmp ult i32 %10, %11
  br i1 %12, label %13, label %32

13:                                               ; preds = %9
  %14 = load ptr, ptr getelementptr inbounds nuw (%struct.UConverterAlias, ptr @_ZL10gMainTable, i32 0, i32 7), align 8, !tbaa !21
  %15 = load ptr, ptr getelementptr inbounds nuw (%struct.UConverterAlias, ptr @_ZL10gMainTable, i32 0, i32 1), align 8, !tbaa !52
  %16 = load i32, ptr %4, align 4, !tbaa !14
  %17 = zext i32 %16 to i64
  %18 = getelementptr inbounds nuw i16, ptr %15, i64 %17
  %19 = load i16, ptr %18, align 2, !tbaa !23
  %20 = zext i16 %19 to i32
  %21 = sext i32 %20 to i64
  %22 = getelementptr inbounds i16, ptr %14, i64 %21
  %23 = load ptr, ptr %3, align 8, !tbaa !3
  %24 = call i32 @uprv_stricmp_77(ptr noundef %22, ptr noundef %23)
  %25 = icmp ne i32 %24, 0
  br i1 %25, label %28, label %26

26:                                               ; preds = %13
  %27 = load i32, ptr %4, align 4, !tbaa !14
  store i32 %27, ptr %2, align 4
  store i32 1, ptr %5, align 4
  br label %33

28:                                               ; preds = %13
  br label %29

29:                                               ; preds = %28
  %30 = load i32, ptr %4, align 4, !tbaa !14
  %31 = add i32 %30, 1
  store i32 %31, ptr %4, align 4, !tbaa !14
  br label %9, !llvm.loop !112

32:                                               ; preds = %9
  store i32 0, ptr %5, align 4
  br label %33

33:                                               ; preds = %32, %26
  call void @llvm.lifetime.end.p0(i64 4, ptr %4) #12
  %34 = load i32, ptr %5, align 4
  switch i32 %34, label %39 [
    i32 0, label %35
    i32 1, label %37
  ]

35:                                               ; preds = %33
  br label %36

36:                                               ; preds = %35, %1
  store i32 -1, ptr %2, align 4
  br label %37

37:                                               ; preds = %36, %33
  %38 = load i32, ptr %2, align 4
  ret i32 %38

39:                                               ; preds = %33
  unreachable
}

; Function Attrs: mustprogress uwtable
define internal noundef i32 @_ZL26findTaggedAliasListsOffsetPKcS0_P10UErrorCode(ptr noundef %0, ptr noundef %1, ptr noundef %2) #2 {
  %4 = alloca i32, align 4
  %5 = alloca ptr, align 8
  %6 = alloca ptr, align 8
  %7 = alloca ptr, align 8
  %8 = alloca i32, align 4
  %9 = alloca i32, align 4
  %10 = alloca i32, align 4
  %11 = alloca i32, align 4
  %12 = alloca i32, align 4
  %13 = alloca i32, align 4
  %14 = alloca i32, align 4
  %15 = alloca i32, align 4
  %16 = alloca i32, align 4
  store ptr %0, ptr %5, align 8, !tbaa !3
  store ptr %1, ptr %6, align 8, !tbaa !3
  store ptr %2, ptr %7, align 8, !tbaa !17
  call void @llvm.lifetime.start.p0(i64 4, ptr %8) #12
  call void @llvm.lifetime.start.p0(i64 4, ptr %9) #12
  call void @llvm.lifetime.start.p0(i64 4, ptr %10) #12
  call void @llvm.lifetime.start.p0(i64 4, ptr %11) #12
  store i32 0, ptr %11, align 4, !tbaa !26
  call void @llvm.lifetime.start.p0(i64 4, ptr %12) #12
  %17 = load ptr, ptr %6, align 8, !tbaa !3
  %18 = call noundef i32 @_ZL12getTagNumberPKc(ptr noundef %17)
  store i32 %18, ptr %12, align 4, !tbaa !14
  %19 = load ptr, ptr %5, align 8, !tbaa !3
  %20 = call noundef i32 @_ZL13findConverterPKcPaP10UErrorCode(ptr noundef %19, ptr noundef null, ptr noundef %11)
  store i32 %20, ptr %10, align 4, !tbaa !14
  %21 = load i32, ptr %11, align 4, !tbaa !26
  %22 = icmp ne i32 %21, 0
  br i1 %22, label %23, label %26

23:                                               ; preds = %3
  %24 = load i32, ptr %11, align 4, !tbaa !26
  %25 = load ptr, ptr %7, align 8, !tbaa !17
  store i32 %24, ptr %25, align 4, !tbaa !26
  br label %26

26:                                               ; preds = %23, %3
  %27 = load i32, ptr %12, align 4, !tbaa !14
  %28 = load i32, ptr getelementptr inbounds nuw (%struct.UConverterAlias, ptr @_ZL10gMainTable, i32 0, i32 10), align 4, !tbaa !47
  %29 = sub i32 %28, 1
  %30 = icmp ult i32 %27, %29
  br i1 %30, label %31, label %121

31:                                               ; preds = %26
  %32 = load i32, ptr %10, align 4, !tbaa !14
  %33 = load i32, ptr getelementptr inbounds nuw (%struct.UConverterAlias, ptr @_ZL10gMainTable, i32 0, i32 9), align 8, !tbaa !18
  %34 = icmp ult i32 %32, %33
  br i1 %34, label %35, label %121

35:                                               ; preds = %31
  %36 = load ptr, ptr getelementptr inbounds nuw (%struct.UConverterAlias, ptr @_ZL10gMainTable, i32 0, i32 4), align 8, !tbaa !48
  %37 = load i32, ptr %12, align 4, !tbaa !14
  %38 = load i32, ptr getelementptr inbounds nuw (%struct.UConverterAlias, ptr @_ZL10gMainTable, i32 0, i32 9), align 8, !tbaa !18
  %39 = mul i32 %37, %38
  %40 = load i32, ptr %10, align 4, !tbaa !14
  %41 = add i32 %39, %40
  %42 = zext i32 %41 to i64
  %43 = getelementptr inbounds nuw i16, ptr %36, i64 %42
  %44 = load i16, ptr %43, align 2, !tbaa !23
  %45 = zext i16 %44 to i32
  store i32 %45, ptr %9, align 4, !tbaa !14
  %46 = load i32, ptr %9, align 4, !tbaa !14
  %47 = icmp ne i32 %46, 0
  br i1 %47, label %48, label %58

48:                                               ; preds = %35
  %49 = load ptr, ptr getelementptr inbounds nuw (%struct.UConverterAlias, ptr @_ZL10gMainTable, i32 0, i32 5), align 8, !tbaa !49
  %50 = load i32, ptr %9, align 4, !tbaa !14
  %51 = add i32 %50, 1
  %52 = zext i32 %51 to i64
  %53 = getelementptr inbounds nuw i16, ptr %49, i64 %52
  %54 = load i16, ptr %53, align 2, !tbaa !23
  %55 = icmp ne i16 %54, 0
  br i1 %55, label %56, label %58

56:                                               ; preds = %48
  %57 = load i32, ptr %9, align 4, !tbaa !14
  store i32 %57, ptr %4, align 4
  store i32 1, ptr %13, align 4
  br label %122

58:                                               ; preds = %48, %35
  %59 = load i32, ptr %11, align 4, !tbaa !26
  %60 = icmp eq i32 %59, -122
  br i1 %60, label %61, label %120

61:                                               ; preds = %58
  store i32 0, ptr %8, align 4, !tbaa !14
  br label %62

62:                                               ; preds = %116, %61
  %63 = load i32, ptr %8, align 4, !tbaa !14
  %64 = load i32, ptr getelementptr inbounds nuw (%struct.UConverterAlias, ptr @_ZL10gMainTable, i32 0, i32 13), align 8, !tbaa !50
  %65 = icmp ult i32 %63, %64
  br i1 %65, label %66, label %119

66:                                               ; preds = %62
  %67 = load ptr, ptr getelementptr inbounds nuw (%struct.UConverterAlias, ptr @_ZL10gMainTable, i32 0, i32 4), align 8, !tbaa !48
  %68 = load i32, ptr %8, align 4, !tbaa !14
  %69 = zext i32 %68 to i64
  %70 = getelementptr inbounds nuw i16, ptr %67, i64 %69
  %71 = load i16, ptr %70, align 2, !tbaa !23
  %72 = zext i16 %71 to i32
  store i32 %72, ptr %9, align 4, !tbaa !14
  %73 = load i32, ptr %9, align 4, !tbaa !14
  %74 = icmp ne i32 %73, 0
  br i1 %74, label %75, label %115

75:                                               ; preds = %66
  %76 = load ptr, ptr %5, align 8, !tbaa !3
  %77 = load i32, ptr %9, align 4, !tbaa !14
  %78 = call noundef signext i8 @_ZL13isAliasInListPKcj(ptr noundef %76, i32 noundef %77)
  %79 = icmp ne i8 %78, 0
  br i1 %79, label %80, label %115

80:                                               ; preds = %75
  call void @llvm.lifetime.start.p0(i64 4, ptr %14) #12
  %81 = load i32, ptr %8, align 4, !tbaa !14
  %82 = load i32, ptr getelementptr inbounds nuw (%struct.UConverterAlias, ptr @_ZL10gMainTable, i32 0, i32 9), align 8, !tbaa !18
  %83 = udiv i32 %81, %82
  store i32 %83, ptr %14, align 4, !tbaa !14
  call void @llvm.lifetime.start.p0(i64 4, ptr %15) #12
  %84 = load i32, ptr %8, align 4, !tbaa !14
  %85 = load i32, ptr %14, align 4, !tbaa !14
  %86 = load i32, ptr getelementptr inbounds nuw (%struct.UConverterAlias, ptr @_ZL10gMainTable, i32 0, i32 9), align 8, !tbaa !18
  %87 = mul i32 %85, %86
  %88 = sub i32 %84, %87
  store i32 %88, ptr %15, align 4, !tbaa !14
  call void @llvm.lifetime.start.p0(i64 4, ptr %16) #12
  %89 = load ptr, ptr getelementptr inbounds nuw (%struct.UConverterAlias, ptr @_ZL10gMainTable, i32 0, i32 4), align 8, !tbaa !48
  %90 = load i32, ptr %12, align 4, !tbaa !14
  %91 = load i32, ptr getelementptr inbounds nuw (%struct.UConverterAlias, ptr @_ZL10gMainTable, i32 0, i32 9), align 8, !tbaa !18
  %92 = mul i32 %90, %91
  %93 = load i32, ptr %15, align 4, !tbaa !14
  %94 = add i32 %92, %93
  %95 = zext i32 %94 to i64
  %96 = getelementptr inbounds nuw i16, ptr %89, i64 %95
  %97 = load i16, ptr %96, align 2, !tbaa !23
  %98 = zext i16 %97 to i32
  store i32 %98, ptr %16, align 4, !tbaa !14
  %99 = load i32, ptr %16, align 4, !tbaa !14
  %100 = icmp ne i32 %99, 0
  br i1 %100, label %101, label %111

101:                                              ; preds = %80
  %102 = load ptr, ptr getelementptr inbounds nuw (%struct.UConverterAlias, ptr @_ZL10gMainTable, i32 0, i32 5), align 8, !tbaa !49
  %103 = load i32, ptr %16, align 4, !tbaa !14
  %104 = add i32 %103, 1
  %105 = zext i32 %104 to i64
  %106 = getelementptr inbounds nuw i16, ptr %102, i64 %105
  %107 = load i16, ptr %106, align 2, !tbaa !23
  %108 = icmp ne i16 %107, 0
  br i1 %108, label %109, label %111

109:                                              ; preds = %101
  %110 = load i32, ptr %16, align 4, !tbaa !14
  store i32 %110, ptr %4, align 4
  store i32 1, ptr %13, align 4
  br label %112

111:                                              ; preds = %101, %80
  store i32 0, ptr %13, align 4
  br label %112

112:                                              ; preds = %111, %109
  call void @llvm.lifetime.end.p0(i64 4, ptr %16) #12
  call void @llvm.lifetime.end.p0(i64 4, ptr %15) #12
  call void @llvm.lifetime.end.p0(i64 4, ptr %14) #12
  %113 = load i32, ptr %13, align 4
  switch i32 %113, label %122 [
    i32 0, label %114
  ]

114:                                              ; preds = %112
  br label %115

115:                                              ; preds = %114, %75, %66
  br label %116

116:                                              ; preds = %115
  %117 = load i32, ptr %8, align 4, !tbaa !14
  %118 = add i32 %117, 1
  store i32 %118, ptr %8, align 4, !tbaa !14
  br label %62, !llvm.loop !51

119:                                              ; preds = %62
  br label %120

120:                                              ; preds = %119, %58
  store i32 0, ptr %4, align 4
  store i32 1, ptr %13, align 4
  br label %122

121:                                              ; preds = %31, %26
  store i32 -1, ptr %4, align 4
  store i32 1, ptr %13, align 4
  br label %122

122:                                              ; preds = %121, %120, %112, %56
  call void @llvm.lifetime.end.p0(i64 4, ptr %12) #12
  call void @llvm.lifetime.end.p0(i64 4, ptr %11) #12
  call void @llvm.lifetime.end.p0(i64 4, ptr %10) #12
  call void @llvm.lifetime.end.p0(i64 4, ptr %9) #12
  call void @llvm.lifetime.end.p0(i64 4, ptr %8) #12
  %123 = load i32, ptr %4, align 4
  ret i32 %123
}