; Function Attrs: mustprogress uwtable
define internal fastcc noundef range(i32 -1, 65536) i32 @_ZL26findTaggedAliasListsOffsetPKcS0_P10UErrorCode(ptr noundef readonly captures(none) %0, ptr noundef %1, ptr noundef writeonly captures(none) %2) unnamed_addr #3 {
  %4 = alloca i32, align 4
  call void @llvm.lifetime.start.p0(i64 4, ptr nonnull %4) #14
  store i32 0, ptr %4, align 4, !tbaa !13
  %5 = load ptr, ptr getelementptr inbounds nuw (i8, ptr @_ZL10gMainTable, i64 8), align 8, !tbaa !35
  %.not.i = icmp ne ptr %5, null
  %6 = load i32, ptr getelementptr inbounds nuw (i8, ptr @_ZL10gMainTable, i64 76), align 4
  %7 = icmp ne i32 %6, 0
  %or.cond.i = select i1 %.not.i, i1 %7, i1 false
  br i1 %or.cond.i, label %.lr.ph.i, label %_ZL12getTagNumberPKc.exit

.lr.ph.i:                                         ; preds = %3, %15
  %indvars.iv.i = phi i64 [ %indvars.iv.next.i, %15 ], [ 0, %3 ]
  %8 = load ptr, ptr getelementptr inbounds nuw (i8, ptr @_ZL10gMainTable, i64 56), align 8, !tbaa !20
  %9 = load ptr, ptr getelementptr inbounds nuw (i8, ptr @_ZL10gMainTable, i64 8), align 8, !tbaa !35
  %10 = getelementptr inbounds nuw i16, ptr %9, i64 %indvars.iv.i
  %11 = load i16, ptr %10, align 2, !tbaa !22
  %12 = zext i16 %11 to i64
  %13 = getelementptr inbounds nuw i16, ptr %8, i64 %12
  %14 = tail call i32 @uprv_stricmp_77(ptr noundef %13, ptr noundef %1)
  %.not8.i = icmp eq i32 %14, 0
  br i1 %.not8.i, label %.thread.loopexit.split.loop.exit15.i, label %15

15:                                               ; preds = %.lr.ph.i
  %indvars.iv.next.i = add nuw nsw i64 %indvars.iv.i, 1
  %16 = load i32, ptr getelementptr inbounds nuw (i8, ptr @_ZL10gMainTable, i64 76), align 4, !tbaa !27
  %17 = zext i32 %16 to i64
  %18 = icmp samesign ult i64 %indvars.iv.next.i, %17
  br i1 %18, label %.lr.ph.i, label %_ZL12getTagNumberPKc.exit, !llvm.loop !55

.thread.loopexit.split.loop.exit15.i:             ; preds = %.lr.ph.i
  %19 = trunc nuw i64 %indvars.iv.i to i32
  br label %_ZL12getTagNumberPKc.exit

_ZL12getTagNumberPKc.exit:                        ; preds = %15, %3, %.thread.loopexit.split.loop.exit15.i
  %.1.i = phi i32 [ -1, %3 ], [ %19, %.thread.loopexit.split.loop.exit15.i ], [ -1, %15 ]
  %20 = call fastcc noundef i32 @_ZL13findConverterPKcPaP10UErrorCode(ptr noundef %0, ptr noundef null, ptr noundef nonnull %4)
  %21 = load i32, ptr %4, align 4, !tbaa !13
  %.not = icmp eq i32 %21, 0
  br i1 %.not, label %23, label %22

22:                                               ; preds = %_ZL12getTagNumberPKc.exit
  store i32 %21, ptr %2, align 4, !tbaa !13
  br label %23

23:                                               ; preds = %22, %_ZL12getTagNumberPKc.exit
  %24 = load i32, ptr getelementptr inbounds nuw (i8, ptr @_ZL10gMainTable, i64 76), align 4, !tbaa !27
  %25 = add i32 %24, -1
  %26 = icmp ult i32 %.1.i, %25
  br i1 %26, label %27, label %.loopexit

27:                                               ; preds = %23
  %28 = load i32, ptr getelementptr inbounds nuw (i8, ptr @_ZL10gMainTable, i64 72), align 8, !tbaa !15
  %29 = icmp ult i32 %20, %28
  br i1 %29, label %30, label %.loopexit

30:                                               ; preds = %27
  %31 = load ptr, ptr getelementptr inbounds nuw (i8, ptr @_ZL10gMainTable, i64 32), align 8, !tbaa !38
  %32 = mul i32 %28, %.1.i
  %33 = add i32 %32, %20
  %34 = zext i32 %33 to i64
  %35 = getelementptr inbounds nuw i16, ptr %31, i64 %34
  %36 = load i16, ptr %35, align 2, !tbaa !22
  %.not34 = icmp eq i16 %36, 0
  br i1 %.not34, label %44, label %37

37:                                               ; preds = %30
  %38 = zext i16 %36 to i32
  %39 = load ptr, ptr getelementptr inbounds nuw (i8, ptr @_ZL10gMainTable, i64 40), align 8, !tbaa !39
  %40 = zext i16 %36 to i64
  %41 = getelementptr inbounds nuw i16, ptr %39, i64 %40
  %42 = getelementptr inbounds nuw i8, ptr %41, i64 2
  %43 = load i16, ptr %42, align 2, !tbaa !22
  %.not35 = icmp eq i16 %43, 0
  br i1 %.not35, label %44, label %.loopexit

44:                                               ; preds = %37, %30
  %45 = icmp eq i32 %21, -122
  br i1 %45, label %.preheader, label %.loopexit

.preheader:                                       ; preds = %44
  %46 = load i32, ptr getelementptr inbounds nuw (i8, ptr @_ZL10gMainTable, i64 88), align 8, !tbaa !30
  %.not52 = icmp eq i32 %46, 0
  br i1 %.not52, label %.loopexit, label %.lr.ph

.lr.ph:                                           ; preds = %.preheader
  %47 = load ptr, ptr getelementptr inbounds nuw (i8, ptr @_ZL10gMainTable, i64 40), align 8
  %48 = load ptr, ptr getelementptr inbounds nuw (i8, ptr @_ZL10gMainTable, i64 56), align 8
  %invariant.gep = getelementptr inbounds nuw i8, ptr %47, i64 2
  %wide.trip.count = zext i32 %46 to i64
  br label %49

49:                                               ; preds = %.lr.ph, %_ZL13isAliasInListPKcj.exit.thread
  %indvars.iv = phi i64 [ 0, %.lr.ph ], [ %indvars.iv.next, %_ZL13isAliasInListPKcj.exit.thread ]
  %50 = getelementptr inbounds nuw i16, ptr %31, i64 %indvars.iv
  %51 = load i16, ptr %50, align 2, !tbaa !22
  %.not36 = icmp eq i16 %51, 0
  br i1 %.not36, label %_ZL13isAliasInListPKcj.exit.thread, label %52

52:                                               ; preds = %49
  %53 = zext i16 %51 to i64
  %54 = getelementptr inbounds nuw i16, ptr %47, i64 %53
  %55 = load i16, ptr %54, align 2, !tbaa !22
  %56 = getelementptr inbounds nuw i8, ptr %54, i64 2
  %.not1617.not.i = icmp eq i16 %55, 0
  br i1 %.not1617.not.i, label %_ZL13isAliasInListPKcj.exit.thread, label %.lr.ph.i40

.lr.ph.i40:                                       ; preds = %52
  %wide.trip.count.i = zext i16 %55 to i64
  br label %57

57:                                               ; preds = %65, %.lr.ph.i40
  %indvars.iv.i41 = phi i64 [ 0, %.lr.ph.i40 ], [ %indvars.iv.next.i43, %65 ]
  %58 = getelementptr inbounds nuw i16, ptr %56, i64 %indvars.iv.i41
  %59 = load i16, ptr %58, align 2, !tbaa !22
  %.not.i42 = icmp eq i16 %59, 0
  br i1 %.not.i42, label %65, label %60

60:                                               ; preds = %57
  %61 = zext i16 %59 to i64
  %62 = getelementptr inbounds nuw i16, ptr %48, i64 %61
  %63 = tail call i32 @ucnv_compareNames_77(ptr noundef readonly %0, ptr noundef nonnull %62)
  %64 = icmp eq i32 %63, 0
  br i1 %64, label %_ZL13isAliasInListPKcj.exit, label %65

65:                                               ; preds = %60, %57
  %indvars.iv.next.i43 = add nuw nsw i64 %indvars.iv.i41, 1
  %exitcond.not.i = icmp eq i64 %indvars.iv.next.i43, %wide.trip.count.i
  br i1 %exitcond.not.i, label %_ZL13isAliasInListPKcj.exit.thread, label %57, !llvm.loop !56

_ZL13isAliasInListPKcj.exit:                      ; preds = %60
  %66 = trunc nuw i64 %indvars.iv to i32
  %67 = urem i32 %66, %28
  %68 = add i32 %67, %32
  %69 = zext i32 %68 to i64
  %70 = getelementptr inbounds nuw i16, ptr %31, i64 %69
  %71 = load i16, ptr %70, align 2, !tbaa !22
  %.not38 = icmp eq i16 %71, 0
  br i1 %.not38, label %_ZL13isAliasInListPKcj.exit.thread, label %72

72:                                               ; preds = %_ZL13isAliasInListPKcj.exit
  %73 = zext i16 %71 to i64
  %gep = getelementptr inbounds nuw i16, ptr %invariant.gep, i64 %73
  %74 = load i16, ptr %gep, align 2, !tbaa !22
  %.not39 = icmp eq i16 %74, 0
  br i1 %.not39, label %_ZL13isAliasInListPKcj.exit.thread, label %.loopexit.split.loop.exit49

_ZL13isAliasInListPKcj.exit.thread:               ; preds = %65, %72, %_ZL13isAliasInListPKcj.exit, %52, %49
  %indvars.iv.next = add nuw nsw i64 %indvars.iv, 1
  %exitcond.not = icmp eq i64 %indvars.iv.next, %wide.trip.count
  br i1 %exitcond.not, label %.loopexit, label %49, !llvm.loop !57

.loopexit.split.loop.exit49:                      ; preds = %72
  %75 = zext i16 %71 to i32
  br label %.loopexit

.loopexit:                                        ; preds = %_ZL13isAliasInListPKcj.exit.thread, %.loopexit.split.loop.exit49, %.preheader, %23, %27, %44, %37
  %.0 = phi i32 [ %38, %37 ], [ 0, %44 ], [ -1, %27 ], [ -1, %23 ], [ %75, %.loopexit.split.loop.exit49 ], [ 0, %.preheader ], [ 0, %_ZL13isAliasInListPKcj.exit.thread ]
  call void @llvm.lifetime.end.p0(i64 4, ptr nonnull %4) #14
  ret i32 %.0
}